target datalayout = "e-m:e-p270:32:32-p271:32:32-p272:64:64-i64:64-i128:128-f80:128-n8:16:32:64-S128"
target triple = "x86_64-pc-linux-gnu"

%struct.AVFilterContext = type { ptr, ptr, ptr, ptr, ptr, i32, ptr, ptr, i32, ptr, ptr, i32, i32, ptr, ptr, ptr, ptr, i32, ptr, i32, i32 }
%struct.AudioHistogramContext = type { ptr, ptr, i32, i32, %struct.AVRational, ptr, ptr, i32, i32, float, i32, i32, i32, i32, i32, i32, i32, i32, i32, ptr, [101 x ptr], i32, i32, ptr }
%struct.AVRational = type { i32, i32 }
%struct.AVFilterFormatsConfig = type { ptr, ptr, ptr, ptr, ptr }
%struct.AVFilterLink = type { ptr, ptr, ptr, ptr, i32, i32, i32, i32, %struct.AVRational, i32, i32, i32, %struct.AVChannelLayout, %struct.AVRational, ptr, i32, %struct.AVFilterFormatsConfig, %struct.AVFilterFormatsConfig }
%struct.AVChannelLayout = type { i32, i32, %union.anon.1, ptr }
%union.anon.1 = type { i64 }
%struct.FilterLink = type { %struct.AVFilterLink, ptr, i64, i64, i32, i32, i64, i64, i64, i64, %struct.AVRational, ptr }

; Function Attrs: alwaysinline nounwind uwtable
define internal i64 @av_inv_q(i64 %0) #7 {
  %2 = alloca %struct.AVRational, align 4
  %3 = alloca %struct.AVRational, align 4
  store i64 %0, ptr %3, align 4
  %4 = getelementptr inbounds nuw %struct.AVRational, ptr %2, i32 0, i32 0
  %5 = getelementptr inbounds nuw %struct.AVRational, ptr %3, i32 0, i32 1
  %6 = load i32, ptr %5, align 4, !tbaa !69
  store i32 %6, ptr %4, align 4, !tbaa !68
  %7 = getelementptr inbounds nuw %struct.AVRational, ptr %2, i32 0, i32 1
  %8 = getelementptr inbounds nuw %struct.AVRational, ptr %3, i32 0, i32 0
  %9 = load i32, ptr %8, align 4, !tbaa !68
  store i32 %9, ptr %7, align 4, !tbaa !69
  %10 = load i64, ptr %2, align 4
  ret i64 %10
}

; Function Attrs: inlinehint nounwind uwtable
define internal ptr @ff_filter_link(ptr noundef %0) #5 {
  %2 = alloca ptr, align 8
  store ptr %0, ptr %2, align 8, !tbaa !34
  %3 = load ptr, ptr %2, align 8, !tbaa !34
  ret ptr %3
}

; Function Attrs: nounwind uwtable
define internal i32 @config_output(ptr noundef %0) #1 {
  %2 = alloca i32, align 4
  %3 = alloca ptr, align 8
  %4 = alloca ptr, align 8
  %5 = alloca ptr, align 8
  %6 = alloca %struct.AVRational, align 4
  %7 = alloca %struct.AVRational, align 4
  %8 = alloca i32, align 4
  store ptr %0, ptr %3, align 8, !tbaa !34
  call void @llvm.lifetime.start.p0(i64 8, ptr %4) #12
  %9 = load ptr, ptr %3, align 8, !tbaa !34
  %10 = getelementptr inbounds nuw %struct.AVFilterLink, ptr %9, i32 0, i32 0
  %11 = load ptr, ptr %10, align 8, !tbaa !62
  %12 = getelementptr inbounds nuw %struct.AVFilterContext, ptr %11, i32 0, i32 9
  %13 = load ptr, ptr %12, align 8, !tbaa !9
  store ptr %13, ptr %4, align 8, !tbaa !22
  call void @llvm.lifetime.start.p0(i64 8, ptr %5) #12
  %14 = load ptr, ptr %3, align 8, !tbaa !34
  %15 = call ptr @ff_filter_link(ptr noundef %14)
  store ptr %15, ptr %5, align 8, !tbaa !63
  %16 = load ptr, ptr %4, align 8, !tbaa !22
  %17 = getelementptr inbounds nuw %struct.AudioHistogramContext, ptr %16, i32 0, i32 2
  %18 = load i32, ptr %17, align 8, !tbaa !59
  %19 = load ptr, ptr %3, align 8, !tbaa !34
  %20 = getelementptr inbounds nuw %struct.AVFilterLink, ptr %19, i32 0, i32 6
  store i32 %18, ptr %20, align 8, !tbaa !65
  %21 = load ptr, ptr %4, align 8, !tbaa !22
  %22 = getelementptr inbounds nuw %struct.AudioHistogramContext, ptr %21, i32 0, i32 3
  %23 = load i32, ptr %22, align 4, !tbaa !66
  %24 = load ptr, ptr %3, align 8, !tbaa !34
  %25 = getelementptr inbounds nuw %struct.AVFilterLink, ptr %24, i32 0, i32 7
  store i32 %23, ptr %25, align 4, !tbaa !67
  %26 = load ptr, ptr %3, align 8, !tbaa !34
  %27 = getelementptr inbounds nuw %struct.AVFilterLink, ptr %26, i32 0, i32 8
  %28 = getelementptr inbounds nuw %struct.AVRational, ptr %6, i32 0, i32 0
  store i32 1, ptr %28, align 4, !tbaa !68
  %29 = getelementptr inbounds nuw %struct.AVRational, ptr %6, i32 0, i32 1
  store i32 1, ptr %29, align 4, !tbaa !69
  call void @llvm.memcpy.p0.p0.i64(ptr align 8 %27, ptr align 4 %6, i64 8, i1 false), !tbaa.struct !70
  %30 = load ptr, ptr %5, align 8, !tbaa !63
  %31 = getelementptr inbounds nuw %struct.FilterLink, ptr %30, i32 0, i32 10
  %32 = load ptr, ptr %4, align 8, !tbaa !22
  %33 = getelementptr inbounds nuw %struct.AudioHistogramContext, ptr %32, i32 0, i32 4
  call void @llvm.memcpy.p0.p0.i64(ptr align 8 %31, ptr align 8 %33, i64 8, i1 false), !tbaa.struct !70
  %34 = load ptr, ptr %3, align 8, !tbaa !34
  %35 = getelementptr inbounds nuw %struct.AVFilterLink, ptr %34, i32 0, i32 13
  call void @llvm.lifetime.start.p0(i64 8, ptr %7) #12
  %36 = load ptr, ptr %5, align 8, !tbaa !63
  %37 = getelementptr inbounds nuw %struct.FilterLink, ptr %36, i32 0, i32 10
  %38 = load i64, ptr %37, align 8
  %39 = call i64 @av_inv_q(i64 %38)
  store i64 %39, ptr %7, align 4
  call void @llvm.memcpy.p0.p0.i64(ptr align 8 %35, ptr align 4 %7, i64 8, i1 false), !tbaa.struct !70
  call void @llvm.lifetime.end.p0(i64 8, ptr %7) #12
  %40 = load ptr, ptr %4, align 8, !tbaa !22
  %41 = getelementptr inbounds nuw %struct.AudioHistogramContext, ptr %40, i32 0, i32 3
  %42 = load i32, ptr %41, align 4, !tbaa !66
  %43 = sitofp i32 %42 to float
  %44 = load ptr, ptr %4, align 8, !tbaa !22
  %45 = getelementptr inbounds nuw %struct.AudioHistogramContext, ptr %44, i32 0, i32 9
  %46 = load float, ptr %45, align 8, !tbaa !71
  %47 = fmul nsz float %43, %46
  %48 = fptosi float %47 to i32
  %49 = load ptr, ptr %4, align 8, !tbaa !22
  %50 = getelementptr inbounds nuw %struct.AudioHistogramContext, ptr %49, i32 0, i32 10
  store i32 %48, ptr %50, align 4, !tbaa !72
  %51 = load ptr, ptr %4, align 8, !tbaa !22
  %52 = getelementptr inbounds nuw %struct.AudioHistogramContext, ptr %51, i32 0, i32 3
  %53 = load i32, ptr %52, align 4, !tbaa !66
  %54 = sitofp i32 %53 to float
  %55 = load ptr, ptr %4, align 8, !tbaa !22
  %56 = getelementptr inbounds nuw %struct.AudioHistogramContext, ptr %55, i32 0, i32 9
  %57 = load float, ptr %56, align 8, !tbaa !71
  %58 = fmul nsz float %54, %57
  %59 = fptosi float %58 to i32
  %60 = load ptr, ptr %4, align 8, !tbaa !22
  %61 = getelementptr inbounds nuw %struct.AudioHistogramContext, ptr %60, i32 0, i32 12
  store i32 %59, ptr %61, align 4, !tbaa !73
  %62 = load ptr, ptr %4, align 8, !tbaa !22
  %63 = getelementptr inbounds nuw %struct.AudioHistogramContext, ptr %62, i32 0, i32 7
  %64 = load i32, ptr %63, align 8, !tbaa !74
  switch i32 %64, label %89 [
    i32 0, label %65
    i32 1, label %77
  ]

65:                                               ; preds = %1
  %66 = load ptr, ptr %4, align 8, !tbaa !22
  %67 = getelementptr inbounds nuw %struct.AudioHistogramContext, ptr %66, i32 0, i32 15
  %68 = load i32, ptr %67, align 8, !tbaa !75
  switch i32 %68, label %75 [
    i32 0, label %69
    i32 1, label %72
  ]

69:                                               ; preds = %65
  %70 = load ptr, ptr %4, align 8, !tbaa !22
  %71 = getelementptr inbounds nuw %struct.AudioHistogramContext, ptr %70, i32 0, i32 23
  store ptr @get_lin_bin_abs, ptr %71, align 8, !tbaa !76
  br label %76

72:                                               ; preds = %65
  %73 = load ptr, ptr %4, align 8, !tbaa !22
  %74 = getelementptr inbounds nuw %struct.AudioHistogramContext, ptr %73, i32 0, i32 23
  store ptr @get_lin_bin_sign, ptr %74, align 8, !tbaa !76
  br label %76

75:                                               ; preds = %65
  store i32 -558323010, ptr %2, align 4
  store i32 1, ptr %8, align 4
  br label %111

76:                                               ; preds = %72, %69
  br label %90

77:                                               ; preds = %1
  %78 = load ptr, ptr %4, align 8, !tbaa !22
  %79 = getelementptr inbounds nuw %struct.AudioHistogramContext, ptr %78, i32 0, i32 15
  %80 = load i32, ptr %79, align 8, !tbaa !75
  switch i32 %80, label %87 [
    i32 0, label %81
    i32 1, label %84
  ]

81:                                               ; preds = %77
  %82 = load ptr, ptr %4, align 8, !tbaa !22
  %83 = getelementptr inbounds nuw %struct.AudioHistogramContext, ptr %82, i32 0, i32 23
  store ptr @get_log_bin_abs, ptr %83, align 8, !tbaa !76
  br label %88

84:                                               ; preds = %77
  %85 = load ptr, ptr %4, align 8, !tbaa !22
  %86 = getelementptr inbounds nuw %struct.AudioHistogramContext, ptr %85, i32 0, i32 23
  store ptr @get_log_bin_sign, ptr %86, align 8, !tbaa !76
  br label %88

87:                                               ; preds = %77
  store i32 -558323010, ptr %2, align 4
  store i32 1, ptr %8, align 4
  br label %111

88:                                               ; preds = %84, %81
  br label %90

89:                                               ; preds = %1
  store i32 -558323010, ptr %2, align 4
  store i32 1, ptr %8, align 4
  br label %111

90:                                               ; preds = %88, %76
  %91 = load ptr, ptr %4, align 8, !tbaa !22
  %92 = getelementptr inbounds nuw %struct.AudioHistogramContext, ptr %91, i32 0, i32 14
  %93 = load i32, ptr %92, align 4, !tbaa !56
  %94 = icmp eq i32 %93, 1
  br i1 %94, label %95, label %110

95:                                               ; preds = %90
  %96 = load ptr, ptr %3, align 8, !tbaa !34
  %97 = getelementptr inbounds nuw %struct.AVFilterLink, ptr %96, i32 0, i32 6
  %98 = load i32, ptr %97, align 8, !tbaa !65
  %99 = mul nsw i32 %98, 3
  %100 = sext i32 %99 to i64
  %101 = call ptr @av_malloc_array(i64 noundef %100, i64 noundef 4)
  %102 = load ptr, ptr %4, align 8, !tbaa !22
  %103 = getelementptr inbounds nuw %struct.AudioHistogramContext, ptr %102, i32 0, i32 19
  store ptr %101, ptr %103, align 8, !tbaa !77
  %104 = load ptr, ptr %4, align 8, !tbaa !22
  %105 = getelementptr inbounds nuw %struct.AudioHistogramContext, ptr %104, i32 0, i32 19
  %106 = load ptr, ptr %105, align 8, !tbaa !77
  %107 = icmp ne ptr %106, null
  br i1 %107, label %109, label %108

108:                                              ; preds = %95
  store i32 -12, ptr %2, align 4
  store i32 1, ptr %8, align 4
  br label %111

109:                                              ; preds = %95
  br label %110

110:                                              ; preds = %109, %90
  store i32 0, ptr %2, align 4
  store i32 1, ptr %8, align 4
  br label %111

111:                                              ; preds = %110, %108, %89, %87, %75
  call void @llvm.lifetime.end.p0(i64 8, ptr %5) #12
  call void @llvm.lifetime.end.p0(i64 8, ptr %4) #12
  %112 = load i32, ptr %2, align 4
  ret i32 %112
}