; Function Attrs: nounwind uwtable
define internal range(i32 -558323010, 1) i32 @config_output(ptr noundef captures(none) initializes((40, 56), (96, 104), (264, 272)) %0) #1 {
  %2 = load ptr, ptr %0, align 8, !tbaa !101
  %3 = getelementptr inbounds nuw i8, ptr %2, i64 72
  %4 = load ptr, ptr %3, align 8, !tbaa !4
  %5 = getelementptr inbounds nuw i8, ptr %4, i64 16
  %6 = load i32, ptr %5, align 8, !tbaa !51
  %7 = getelementptr inbounds nuw i8, ptr %0, i64 40
  store i32 %6, ptr %7, align 8, !tbaa !54
  %8 = getelementptr inbounds nuw i8, ptr %4, i64 20
  %9 = load i32, ptr %8, align 4, !tbaa !57
  %10 = getelementptr inbounds nuw i8, ptr %0, i64 44
  store i32 %9, ptr %10, align 4, !tbaa !56
  %11 = getelementptr inbounds nuw i8, ptr %0, i64 48
  store i32 1, ptr %11, align 8, !tbaa !59
  %.sroa.2.0..sroa_idx = getelementptr inbounds nuw i8, ptr %0, i64 52
  store i32 1, ptr %.sroa.2.0..sroa_idx, align 4, !tbaa !59
  %12 = getelementptr inbounds nuw i8, ptr %0, i64 264
  %13 = getelementptr inbounds nuw i8, ptr %4, i64 24
  %14 = load i64, ptr %13, align 8
  store i64 %14, ptr %12, align 8
  %15 = getelementptr inbounds nuw i8, ptr %0, i64 96
  %.sroa.01.0.insert.insert.i = tail call i64 @llvm.fshl.i64(i64 %14, i64 %14, i64 32)
  store i64 %.sroa.01.0.insert.insert.i, ptr %15, align 8
  %16 = load i32, ptr %8, align 4, !tbaa !57
  %17 = sitofp i32 %16 to float
  %18 = getelementptr inbounds nuw i8, ptr %4, i64 56
  %19 = load float, ptr %18, align 8, !tbaa !102
  %20 = fmul nsz float %19, %17
  %21 = fptosi float %20 to i32
  %22 = getelementptr inbounds nuw i8, ptr %4, i64 60
  store i32 %21, ptr %22, align 4, !tbaa !50
  %23 = getelementptr inbounds nuw i8, ptr %4, i64 68
  store i32 %21, ptr %23, align 4, !tbaa !89
  %24 = getelementptr inbounds nuw i8, ptr %4, i64 48
  %25 = load i32, ptr %24, align 8, !tbaa !70
  switch i32 %25, label %45 [
    i32 0, label %26
    i32 1, label %30
  ]

26:                                               ; preds = %1
  %27 = getelementptr inbounds nuw i8, ptr %4, i64 80
  %28 = load i32, ptr %27, align 8, !tbaa !103
  switch i32 %28, label %45 [
    i32 0, label %34
    i32 1, label %29
  ]

29:                                               ; preds = %26
  br label %34

30:                                               ; preds = %1
  %31 = getelementptr inbounds nuw i8, ptr %4, i64 80
  %32 = load i32, ptr %31, align 8, !tbaa !103
  switch i32 %32, label %45 [
    i32 0, label %34
    i32 1, label %33
  ]

33:                                               ; preds = %30
  br label %34

34:                                               ; preds = %30, %26, %33, %29
  %get_log_bin_abs.sink = phi ptr [ @get_log_bin_sign, %33 ], [ @get_lin_bin_sign, %29 ], [ @get_lin_bin_abs, %26 ], [ @get_log_bin_abs, %30 ]
  %35 = getelementptr inbounds nuw i8, ptr %4, i64 920
  store ptr %get_log_bin_abs.sink, ptr %35, align 8, !tbaa !74
  %36 = getelementptr inbounds nuw i8, ptr %4, i64 76
  %37 = load i32, ptr %36, align 4, !tbaa !61
  %38 = icmp eq i32 %37, 1
  br i1 %38, label %39, label %44

39:                                               ; preds = %34
  %40 = mul nsw i32 %6, 3
  %41 = sext i32 %40 to i64
  %42 = tail call ptr @av_malloc_array(i64 noundef %41, i64 noundef 4) #12
  %43 = getelementptr inbounds nuw i8, ptr %4, i64 96
  store ptr %42, ptr %43, align 8, !tbaa !62
  %.not = icmp eq ptr %42, null
  br i1 %.not, label %45, label %44

44:                                               ; preds = %39, %34
  br label %45

45:                                               ; preds = %39, %1, %30, %26, %44
  %.0 = phi i32 [ 0, %44 ], [ -558323010, %26 ], [ -558323010, %30 ], [ -558323010, %1 ], [ -12, %39 ]
  ret i32 %.0
}